target datalayout = "e-m:e-p270:32:32-p271:32:32-p272:64:64-i64:64-i128:128-f80:128-n8:16:32:64-S128"
target triple = "x86_64-pc-linux-gnu"

%struct.GCRef = type { i64 }
%struct.jit_State = type { %struct.GCtrace, ptr, ptr, ptr, ptr, ptr, ptr, i32, i32, i32, i8, i8, %struct.IRType1, i8, %struct.FoldState, ptr, i32, i32, i32, i32, i32, i32, i32, [1 x i32], [5 x %union.TValue], [3 x %union.TValue], ptr, i32, i32, i32, i32, ptr, ptr, i32, i32, i8, ptr, i32, i32, i16, [101 x i16], [258 x i32], [15 x i32], [16 x ptr], [64 x %struct.HotPenalty], i32, [16 x %struct.BPropEntry], i32, %struct.ScEvEntry, ptr, i32, i32, i32, ptr, i32, i32, ptr, ptr, ptr, i64, i64, %union.TValue, ptr, i32, i32 }
%struct.GCtrace = type { %struct.GCRef, i8, i8, i16, i32, i32, %struct.GCRef, ptr, i32, i32, ptr, ptr, %struct.GCRef, %struct.MRef, i32, i32, ptr, i32, i16, i16, i16, i16, i16, i16, i16, i8, i8, i8, i8 }
%struct.MRef = type { i64 }
%struct.IRType1 = type { i8 }
%struct.FoldState = type { %union.IRIns, [2 x %union.IRIns], [2 x %union.IRIns] }
%union.IRIns = type { %struct.GCRef }
%struct.HotPenalty = type { %struct.MRef, i16, i16 }
%struct.BPropEntry = type { i16, i16, i32 }
%struct.ScEvEntry = type { %struct.MRef, i16, i16, i16, i16, %struct.IRType1, i8 }
%union.TValue = type { i64 }
%struct.RecordFFData = type { ptr, i64, i32 }
%struct.RecordIndex = type { %union.TValue, %union.TValue, %union.TValue, %union.TValue, ptr, ptr, i32, i32, i32, i32, i32, i32 }

@.str = private unnamed_addr constant [23 x i8] c"copy of dead GC object\00", align 1
@.str.1 = private unnamed_addr constant [24 x i8] c"store to dead GC object\00", align 1

; Function Attrs: alwaysinline nounwind uwtable
define internal void @setgcVraw(ptr noundef %0, ptr noundef %1, i32 noundef %2) #1 {
  %4 = alloca ptr, align 8
  %5 = alloca ptr, align 8
  %6 = alloca i32, align 4
  store ptr %0, ptr %4, align 8, !tbaa !11
  store ptr %1, ptr %5, align 8, !tbaa !93
  store i32 %2, ptr %6, align 4, !tbaa !9
  %7 = load ptr, ptr %5, align 8, !tbaa !93
  %8 = ptrtoint ptr %7 to i64
  %9 = load i32, ptr %6, align 4, !tbaa !9
  %10 = zext i32 %9 to i64
  %11 = shl i64 %10, 47
  %12 = or i64 %8, %11
  %13 = load ptr, ptr %4, align 8, !tbaa !11
  %14 = getelementptr inbounds nuw %struct.GCRef, ptr %13, i32 0, i32 0
  store i64 %12, ptr %14, align 8, !tbaa !13
  ret void
}

; Function Attrs: alwaysinline nounwind uwtable
define internal void @checklivetv(ptr noundef %0, ptr noundef %1, ptr noundef %2) #1 {
  %4 = alloca ptr, align 8
  %5 = alloca ptr, align 8
  %6 = alloca ptr, align 8
  store ptr %0, ptr %4, align 8, !tbaa !87
  store ptr %1, ptr %5, align 8, !tbaa !11
  store ptr %2, ptr %6, align 8, !tbaa !92
  ret void
}

; Function Attrs: alwaysinline nounwind uwtable
define internal void @setgcV(ptr noundef %0, ptr noundef %1, ptr noundef %2, i32 noundef %3) #1 {
  %5 = alloca ptr, align 8
  %6 = alloca ptr, align 8
  %7 = alloca ptr, align 8
  %8 = alloca i32, align 4
  store ptr %0, ptr %5, align 8, !tbaa !87
  store ptr %1, ptr %6, align 8, !tbaa !11
  store ptr %2, ptr %7, align 8, !tbaa !93
  store i32 %3, ptr %8, align 4, !tbaa !9
  %9 = load ptr, ptr %6, align 8, !tbaa !11
  %10 = load ptr, ptr %7, align 8, !tbaa !93
  %11 = load i32, ptr %8, align 4, !tbaa !9
  call void @setgcVraw(ptr noundef %9, ptr noundef %10, i32 noundef %11)
  %12 = load ptr, ptr %5, align 8, !tbaa !87
  %13 = load ptr, ptr %6, align 8, !tbaa !11
  call void @checklivetv(ptr noundef %12, ptr noundef %13, ptr noundef @.str.1)
  ret void
}

; Function Attrs: alwaysinline nounwind uwtable
define internal void @copyTV(ptr noundef %0, ptr noundef %1, ptr noundef %2) #1 {
  %4 = alloca ptr, align 8
  %5 = alloca ptr, align 8
  %6 = alloca ptr, align 8
  store ptr %0, ptr %4, align 8, !tbaa !87
  store ptr %1, ptr %5, align 8, !tbaa !11
  store ptr %2, ptr %6, align 8, !tbaa !11
  %7 = load ptr, ptr %5, align 8, !tbaa !11
  %8 = load ptr, ptr %6, align 8, !tbaa !11
  call void @llvm.memcpy.p0.p0.i64(ptr align 8 %7, ptr align 8 %8, i64 8, i1 false), !tbaa.struct !91
  %9 = load ptr, ptr %4, align 8, !tbaa !87
  %10 = load ptr, ptr %5, align 8, !tbaa !11
  call void @checklivetv(ptr noundef %9, ptr noundef %10, ptr noundef @.str)
  ret void
}

; Function Attrs: alwaysinline nounwind uwtable
define internal void @settabV(ptr noundef %0, ptr noundef %1, ptr noundef %2) #1 {
  %4 = alloca ptr, align 8
  %5 = alloca ptr, align 8
  %6 = alloca ptr, align 8
  store ptr %0, ptr %4, align 8, !tbaa !87
  store ptr %1, ptr %5, align 8, !tbaa !11
  store ptr %2, ptr %6, align 8, !tbaa !75
  %7 = load ptr, ptr %4, align 8, !tbaa !87
  %8 = load ptr, ptr %5, align 8, !tbaa !11
  %9 = load ptr, ptr %6, align 8, !tbaa !75
  call void @setgcV(ptr noundef %7, ptr noundef %8, ptr noundef %9, i32 noundef -12)
  ret void
}

; Function Attrs: nounwind uwtable
define internal void @recff_rawset(ptr noundef %0, ptr noundef %1) #0 {
  %3 = alloca ptr, align 8
  %4 = alloca ptr, align 8
  %5 = alloca %struct.RecordIndex, align 8
  store ptr %0, ptr %3, align 8, !tbaa !4
  store ptr %1, ptr %4, align 8, !tbaa !46
  call void @llvm.lifetime.start.p0(i64 72, ptr %5) #9
  %6 = load ptr, ptr %3, align 8, !tbaa !4
  %7 = getelementptr inbounds nuw %struct.jit_State, ptr %6, i32 0, i32 6
  %8 = load ptr, ptr %7, align 8, !tbaa !41
  %9 = getelementptr inbounds i32, ptr %8, i64 0
  %10 = load i32, ptr %9, align 4, !tbaa !9
  %11 = getelementptr inbounds nuw %struct.RecordIndex, ptr %5, i32 0, i32 6
  store i32 %10, ptr %11, align 8, !tbaa !50
  %12 = load ptr, ptr %3, align 8, !tbaa !4
  %13 = getelementptr inbounds nuw %struct.jit_State, ptr %12, i32 0, i32 6
  %14 = load ptr, ptr %13, align 8, !tbaa !41
  %15 = getelementptr inbounds i32, ptr %14, i64 1
  %16 = load i32, ptr %15, align 4, !tbaa !9
  %17 = getelementptr inbounds nuw %struct.RecordIndex, ptr %5, i32 0, i32 7
  store i32 %16, ptr %17, align 4, !tbaa !53
  %18 = load ptr, ptr %3, align 8, !tbaa !4
  %19 = getelementptr inbounds nuw %struct.jit_State, ptr %18, i32 0, i32 6
  %20 = load ptr, ptr %19, align 8, !tbaa !41
  %21 = getelementptr inbounds i32, ptr %20, i64 2
  %22 = load i32, ptr %21, align 4, !tbaa !9
  %23 = getelementptr inbounds nuw %struct.RecordIndex, ptr %5, i32 0, i32 8
  store i32 %22, ptr %23, align 8, !tbaa !56
  %24 = getelementptr inbounds nuw %struct.RecordIndex, ptr %5, i32 0, i32 6
  %25 = load i32, ptr %24, align 8, !tbaa !50
  %26 = and i32 %25, 520093696
  %27 = icmp eq i32 %26, 184549376
  br i1 %27, label %28, label %68

28:                                               ; preds = %2
  %29 = getelementptr inbounds nuw %struct.RecordIndex, ptr %5, i32 0, i32 7
  %30 = load i32, ptr %29, align 4, !tbaa !53
  %31 = icmp ne i32 %30, 0
  br i1 %31, label %32, label %68

32:                                               ; preds = %28
  %33 = getelementptr inbounds nuw %struct.RecordIndex, ptr %5, i32 0, i32 8
  %34 = load i32, ptr %33, align 8, !tbaa !56
  %35 = icmp ne i32 %34, 0
  br i1 %35, label %36, label %68

36:                                               ; preds = %32
  %37 = getelementptr inbounds nuw %struct.RecordIndex, ptr %5, i32 0, i32 11
  store i32 0, ptr %37, align 4, !tbaa !54
  %38 = load ptr, ptr %3, align 8, !tbaa !4
  %39 = getelementptr inbounds nuw %struct.jit_State, ptr %38, i32 0, i32 2
  %40 = load ptr, ptr %39, align 8, !tbaa !37
  %41 = getelementptr inbounds nuw %struct.RecordIndex, ptr %5, i32 0, i32 0
  %42 = load ptr, ptr %4, align 8, !tbaa !46
  %43 = getelementptr inbounds nuw %struct.RecordFFData, ptr %42, i32 0, i32 0
  %44 = load ptr, ptr %43, align 8, !tbaa !40
  %45 = getelementptr inbounds %union.TValue, ptr %44, i64 0
  %46 = getelementptr inbounds nuw %struct.GCRef, ptr %45, i32 0, i32 0
  %47 = load i64, ptr %46, align 8, !tbaa !13
  %48 = and i64 %47, 140737488355327
  %49 = inttoptr i64 %48 to ptr
  call void @settabV(ptr noundef %40, ptr noundef %41, ptr noundef %49)
  %50 = load ptr, ptr %3, align 8, !tbaa !4
  %51 = getelementptr inbounds nuw %struct.jit_State, ptr %50, i32 0, i32 2
  %52 = load ptr, ptr %51, align 8, !tbaa !37
  %53 = getelementptr inbounds nuw %struct.RecordIndex, ptr %5, i32 0, i32 1
  %54 = load ptr, ptr %4, align 8, !tbaa !46
  %55 = getelementptr inbounds nuw %struct.RecordFFData, ptr %54, i32 0, i32 0
  %56 = load ptr, ptr %55, align 8, !tbaa !40
  %57 = getelementptr inbounds %union.TValue, ptr %56, i64 1
  call void @copyTV(ptr noundef %52, ptr noundef %53, ptr noundef %57)
  %58 = load ptr, ptr %3, align 8, !tbaa !4
  %59 = getelementptr inbounds nuw %struct.jit_State, ptr %58, i32 0, i32 2
  %60 = load ptr, ptr %59, align 8, !tbaa !37
  %61 = getelementptr inbounds nuw %struct.RecordIndex, ptr %5, i32 0, i32 2
  %62 = load ptr, ptr %4, align 8, !tbaa !46
  %63 = getelementptr inbounds nuw %struct.RecordFFData, ptr %62, i32 0, i32 0
  %64 = load ptr, ptr %63, align 8, !tbaa !40
  %65 = getelementptr inbounds %union.TValue, ptr %64, i64 2
  call void @copyTV(ptr noundef %60, ptr noundef %61, ptr noundef %65)
  %66 = load ptr, ptr %3, align 8, !tbaa !4
  %67 = call i32 @lj_record_idx(ptr noundef %66, ptr noundef %5)
  br label %68

68:                                               ; preds = %36, %32, %28, %2
  call void @llvm.lifetime.end.p0(i64 72, ptr %5) #9
  ret void
}