; Function Attrs: nounwind uwtable
define internal void @recff_rawset(ptr noundef %0, ptr noundef readonly captures(none) %1) #0 {
  %3 = alloca %struct.RecordIndex, align 8
  call void @llvm.lifetime.start.p0(i64 72, ptr nonnull %3) #9
  %4 = getelementptr inbounds nuw i8, ptr %0, i64 160
  %5 = load ptr, ptr %4, align 8, !tbaa !37
  %6 = load i32, ptr %5, align 4, !tbaa !39
  %7 = getelementptr inbounds nuw i8, ptr %3, i64 48
  store i32 %6, ptr %7, align 8, !tbaa !47
  %8 = getelementptr inbounds nuw i8, ptr %5, i64 4
  %9 = load i32, ptr %8, align 4, !tbaa !39
  %10 = getelementptr inbounds nuw i8, ptr %3, i64 52
  store i32 %9, ptr %10, align 4, !tbaa !50
  %11 = getelementptr inbounds nuw i8, ptr %5, i64 8
  %12 = load i32, ptr %11, align 4, !tbaa !39
  %13 = getelementptr inbounds nuw i8, ptr %3, i64 56
  store i32 %12, ptr %13, align 8, !tbaa !53
  %14 = and i32 %6, 520093696
  %15 = icmp eq i32 %14, 184549376
  %16 = icmp ne i32 %9, 0
  %or.cond = select i1 %15, i1 %16, i1 false
  %17 = icmp ne i32 %12, 0
  %or.cond5 = select i1 %or.cond, i1 %17, i1 false
  br i1 %or.cond5, label %18, label %31

18:                                               ; preds = %2
  %19 = getelementptr inbounds nuw i8, ptr %3, i64 68
  store i32 0, ptr %19, align 4, !tbaa !51
  %20 = load ptr, ptr %1, align 8, !tbaa !36
  %21 = load i64, ptr %20, align 8, !tbaa !4
  %22 = and i64 %21, 140737488355327
  %23 = or disjoint i64 %22, -1688849860263936
  store i64 %23, ptr %3, align 8, !tbaa !4
  %24 = getelementptr inbounds nuw i8, ptr %3, i64 8
  %25 = getelementptr inbounds nuw i8, ptr %20, i64 8
  %26 = load i64, ptr %25, align 8, !tbaa !4
  store i64 %26, ptr %24, align 8, !tbaa !4
  %27 = getelementptr inbounds nuw i8, ptr %3, i64 16
  %28 = getelementptr inbounds nuw i8, ptr %20, i64 16
  %29 = load i64, ptr %28, align 8, !tbaa !4
  store i64 %29, ptr %27, align 8, !tbaa !4
  %30 = call i32 @lj_record_idx(ptr noundef nonnull %0, ptr noundef nonnull %3) #9
  br label %31

31:                                               ; preds = %18, %2
  call void @llvm.lifetime.end.p0(i64 72, ptr nonnull %3) #9
  ret void
}